; Function Attrs: mustprogress uwtable
define void @_ZN10open_spiel10phantom_go14PhantomGoStateC2ESt10shared_ptrIKNS_4GameEEifi(ptr noundef nonnull align 8 dereferenceable(8846) %0, ptr nocapture noundef %1, i32 noundef %2, float noundef %3, i32 noundef %4) unnamed_addr #3 align 2 personality ptr @__gxx_personality_v0 {
  %6 = alloca %"class.std::shared_ptr", align 8
  %7 = load ptr, ptr %1, align 8
  store ptr %7, ptr %6, align 8
  %8 = getelementptr inbounds nuw i8, ptr %6, i64 8
  %9 = getelementptr inbounds nuw i8, ptr %1, i64 8
  %10 = load ptr, ptr %9, align 8
  store ptr null, ptr %9, align 8
  store ptr %10, ptr %8, align 8
  store ptr null, ptr %1, align 8
  invoke void @_ZN10open_spiel5StateC2ESt10shared_ptrIKNS_4GameEE(ptr noundef nonnull align 8 dereferenceable(60) %0, ptr noundef nonnull %6)
          to label %11 unwind label %67

11:                                               ; preds = %5
  %12 = load ptr, ptr %8, align 8
  %.not.i.i.i = icmp eq ptr %12, null
  br i1 %.not.i.i.i, label %_ZNSt10shared_ptrIKN10open_spiel4GameEED2Ev.exit, label %13

13:                                               ; preds = %11
  %14 = getelementptr inbounds nuw i8, ptr %12, i64 8
  %15 = load atomic i64, ptr %14 acquire, align 8
  %16 = icmp eq i64 %15, 4294967297
  %17 = trunc i64 %15 to i32
  br i1 %16, label %18, label %23

18:                                               ; preds = %13
  store i32 0, ptr %14, align 8
  %19 = getelementptr inbounds nuw i8, ptr %12, i64 12
  store i32 0, ptr %19, align 4
  %20 = load ptr, ptr %12, align 8
  %21 = getelementptr inbounds i8, ptr %20, i64 16
  %22 = load ptr, ptr %21, align 8
  call void %22(ptr noundef nonnull align 8 dereferenceable(16) %12) #24
  br label %_ZNSt16_Sp_counted_baseILN9__gnu_cxx12_Lock_policyE2EE24_M_release_last_use_coldEv.exit.sink.split.i.i.i.i

23:                                               ; preds = %13
  %24 = load i8, ptr @__libc_single_threaded, align 1
  %.not.i.i.i.i = icmp eq i8 %24, 0
  br i1 %.not.i.i.i.i, label %27, label %25

25:                                               ; preds = %23
  %26 = add nsw i32 %17, -1
  store i32 %26, ptr %14, align 4
  br label %29

27:                                               ; preds = %23
  %28 = atomicrmw volatile add ptr %14, i32 -1 acq_rel, align 4
  br label %29

29:                                               ; preds = %27, %25
  %.0.i.i.i.i = phi i32 [ %17, %25 ], [ %28, %27 ]
  %30 = icmp eq i32 %.0.i.i.i.i, 1
  br i1 %30, label %31, label %_ZNSt10shared_ptrIKN10open_spiel4GameEED2Ev.exit

31:                                               ; preds = %29
  %32 = load ptr, ptr %12, align 8
  %33 = getelementptr inbounds i8, ptr %32, i64 16
  %34 = load ptr, ptr %33, align 8
  call void %34(ptr noundef nonnull align 8 dereferenceable(16) %12) #24
  %35 = getelementptr inbounds nuw i8, ptr %12, i64 12
  %36 = load i8, ptr @__libc_single_threaded, align 1
  %.not.i.i.i.i.i.i = icmp eq i8 %36, 0
  br i1 %.not.i.i.i.i.i.i, label %40, label %37

37:                                               ; preds = %31
  %38 = load i32, ptr %35, align 4
  %39 = add nsw i32 %38, -1
  store i32 %39, ptr %35, align 4
  br label %42

40:                                               ; preds = %31
  %41 = atomicrmw volatile add ptr %35, i32 -1 acq_rel, align 4
  br label %42

42:                                               ; preds = %40, %37
  %.0.i.i.i.i.i.i = phi i32 [ %38, %37 ], [ %41, %40 ]
  %43 = icmp eq i32 %.0.i.i.i.i.i.i, 1
  br i1 %43, label %_ZNSt16_Sp_counted_baseILN9__gnu_cxx12_Lock_policyE2EE24_M_release_last_use_coldEv.exit.sink.split.i.i.i.i, label %_ZNSt10shared_ptrIKN10open_spiel4GameEED2Ev.exit

_ZNSt16_Sp_counted_baseILN9__gnu_cxx12_Lock_policyE2EE24_M_release_last_use_coldEv.exit.sink.split.i.i.i.i: ; preds = %42, %18
  %44 = load ptr, ptr %12, align 8
  %45 = getelementptr inbounds i8, ptr %44, i64 24
  %46 = load ptr, ptr %45, align 8
  call void %46(ptr noundef nonnull align 8 dereferenceable(16) %12) #24
  br label %_ZNSt10shared_ptrIKN10open_spiel4GameEED2Ev.exit

_ZNSt10shared_ptrIKN10open_spiel4GameEED2Ev.exit: ; preds = %11, %29, %42, %_ZNSt16_Sp_counted_baseILN9__gnu_cxx12_Lock_policyE2EE24_M_release_last_use_coldEv.exit.sink.split.i.i.i.i
  store ptr getelementptr inbounds inrange(-16, 304) (i8, ptr @_ZTVN10open_spiel10phantom_go14PhantomGoStateE, i64 16), ptr %0, align 8
  %47 = getelementptr inbounds nuw i8, ptr %0, i64 64
  invoke void @_ZN10open_spiel10phantom_go14PhantomGoBoardC1Ei(ptr noundef nonnull align 8 dereferenceable(8706) %47, i32 noundef %2)
          to label %48 unwind label %69

48:                                               ; preds = %_ZNSt10shared_ptrIKN10open_spiel4GameEED2Ev.exit
  %49 = getelementptr inbounds nuw i8, ptr %0, i64 8776
  %50 = getelementptr inbounds i8, ptr %0, i64 8824
  store ptr %50, ptr %49, align 8
  %51 = getelementptr inbounds i8, ptr %0, i64 8784
  store i64 1, ptr %51, align 8
  %52 = getelementptr inbounds i8, ptr %0, i64 8792
  %53 = getelementptr inbounds i8, ptr %0, i64 8808
  call void @llvm.memset.p0.i64(ptr noundef nonnull align 8 dereferenceable(16) %52, i8 0, i64 16, i1 false)
  store float 1.000000e+00, ptr %53, align 8
  %54 = getelementptr inbounds i8, ptr %0, i64 8816
  call void @llvm.memset.p0.i64(ptr noundef nonnull align 8 dereferenceable(16) %54, i8 0, i64 16, i1 false)
  %55 = getelementptr inbounds nuw i8, ptr %0, i64 8832
  store float %3, ptr %55, align 8
  %56 = getelementptr inbounds nuw i8, ptr %0, i64 8836
  store i32 %4, ptr %56, align 4
  %57 = getelementptr inbounds nuw i8, ptr %0, i64 8
  %58 = load ptr, ptr %57, align 8
  %59 = load ptr, ptr %58, align 8
  %60 = getelementptr inbounds i8, ptr %59, i64 136
  %61 = load ptr, ptr %60, align 8
  %62 = invoke noundef i32 %61(ptr noundef nonnull align 8 dereferenceable(280) %58)
          to label %63 unwind label %71

63:                                               ; preds = %48
  %64 = getelementptr inbounds nuw i8, ptr %0, i64 8840
  store i32 %62, ptr %64, align 8
  %65 = getelementptr inbounds nuw i8, ptr %0, i64 8844
  store i8 0, ptr %65, align 4
  invoke void @_ZN10open_spiel10phantom_go14PhantomGoState10ResetBoardEv(ptr noundef nonnull align 8 dereferenceable(8846) %0)
          to label %66 unwind label %71

66:                                               ; preds = %63
  ret void

67:                                               ; preds = %5
  %68 = landingpad { ptr, i32 }
          cleanup
  call void @_ZNSt10shared_ptrIKN10open_spiel4GameEED2Ev(ptr noundef nonnull align 8 dereferenceable(16) %6) #24
  br label %74

69:                                               ; preds = %_ZNSt10shared_ptrIKN10open_spiel4GameEED2Ev.exit
  %70 = landingpad { ptr, i32 }
          cleanup
  br label %73

71:                                               ; preds = %63, %48
  %72 = landingpad { ptr, i32 }
          cleanup
  call void @_ZNSt13unordered_setImN10open_spiel10phantom_go14PhantomGoState15PassthroughHashESt8equal_toImESaImEED2Ev(ptr noundef nonnull align 8 dereferenceable(56) %49) #24
  br label %73

73:                                               ; preds = %71, %69
  %.pn = phi { ptr, i32 } [ %72, %71 ], [ %70, %69 ]
  call void @_ZN10open_spiel5StateD2Ev(ptr noundef nonnull align 8 dereferenceable(60) %0) #24
  br label %74

74:                                               ; preds = %73, %67
  %.pn.pn = phi { ptr, i32 } [ %.pn, %73 ], [ %68, %67 ]
  resume { ptr, i32 } %.pn.pn
}